; Function Attrs: nofree norecurse nosync nounwind memory(read, argmem: readwrite, inaccessiblemem: none) uwtable
define internal fastcc range(i32 0, 5) i32 @decode_plane_subdivision(ptr noundef captures(none) %0) unnamed_addr #7 {
  %2 = getelementptr inbounds nuw i8, ptr %0, i64 16
  %3 = load i32, ptr %2, align 8, !tbaa !51
  %4 = getelementptr inbounds nuw i8, ptr %0, i64 24
  %5 = load i32, ptr %4, align 8, !tbaa !52
  %6 = load ptr, ptr %0, align 8, !tbaa !53
  %7 = lshr i32 %3, 3
  %8 = zext nneg i32 %7 to i64
  %9 = getelementptr inbounds nuw i8, ptr %6, i64 %8
  %10 = load i32, ptr %9, align 1, !tbaa !54
  %11 = and i32 %3, 7
  %12 = lshr i32 %10, %11
  %13 = and i32 %12, 3
  %14 = add i32 %3, 2
  %15 = tail call i32 @llvm.umin.i32(i32 %5, i32 %14)
  store i32 %15, ptr %2, align 8, !tbaa !51
  switch i32 %13, label %28 [
    i32 3, label %.loopexit
    i32 2, label %.preheader
  ]

16:                                               ; preds = %.preheader
  %17 = add nuw nsw i32 %.05, 1
  %exitcond.not = icmp eq i32 %17, 4
  br i1 %exitcond.not, label %.loopexit, label %.preheader, !llvm.loop !68

.preheader:                                       ; preds = %1, %16
  %18 = phi i32 [ %27, %16 ], [ %15, %1 ]
  %.05 = phi i32 [ %17, %16 ], [ 0, %1 ]
  %19 = lshr i32 %18, 3
  %20 = zext nneg i32 %19 to i64
  %21 = getelementptr inbounds nuw i8, ptr %6, i64 %20
  %22 = load i32, ptr %21, align 1, !tbaa !54
  %23 = and i32 %18, 7
  %24 = lshr i32 %22, %23
  %25 = and i32 %24, 3
  %26 = add i32 %18, 2
  %27 = tail call i32 @llvm.umin.i32(i32 %5, i32 %26)
  store i32 %27, ptr %2, align 8, !tbaa !51
  %.not = icmp eq i32 %25, 3
  br i1 %.not, label %16, label %.loopexit

28:                                               ; preds = %1
  br label %.loopexit

.loopexit:                                        ; preds = %16, %.preheader, %1, %28
  %.04 = phi i32 [ 0, %28 ], [ 1, %1 ], [ 4, %16 ], [ 0, %.preheader ]
  ret i32 %.04
}